target datalayout = "e-m:e-p270:32:32-p271:32:32-p272:64:64-i64:64-i128:128-f80:128-n8:16:32:64-S128"
target triple = "x86_64-pc-linux-gnu"

%struct.AVCodecContext = type { ptr, i32, i32, ptr, i32, i32, ptr, ptr, ptr, i64, i32, i32, ptr, i32, %struct.AVRational, %struct.AVRational, %struct.AVRational, i32, i32, i32, i32, i32, %struct.AVRational, i32, i32, i32, i32, i32, i32, i32, i32, i32, i32, i32, ptr, ptr, i32, float, float, float, float, float, float, float, float, float, i32, i32, i32, i32, i32, i32, i32, i32, i32, i32, i32, i32, ptr, ptr, ptr, i32, i32, i32, i32, i32, i32, i32, i32, i32, i32, %struct.AVChannelLayout, i32, i32, i32, i32, i32, i32, i32, i32, ptr, i32, i32, i32, float, float, i32, i32, i32, i32, i32, ptr, i64, i64, float, float, i32, i32, ptr, ptr, i32, i32, i32, i32, i32, ptr, ptr, ptr, ptr, i32, i32, [8 x i64], i32, i32, i32, i32, i32, i32, i32, ptr, ptr, i32, i32, i32, i32, i32, i32, i32, i32, i32, i32, ptr, ptr, i32, i32, ptr, ptr, ptr, ptr, i32, i32, i64, i32, i32, i64, ptr, i64, ptr, i32, ptr, i32 }
%struct.AVRational = type { i32, i32 }
%struct.AVChannelLayout = type { i32, i32, %union.anon.1, ptr }
%union.anon.1 = type { i64 }
%struct.V4L2m2mContext = type { [4096 x i8], i32, %struct.V4L2Context, %struct.V4L2Context, ptr, %union.sem_t, i32, i32, i32, %struct.AVPacket, ptr, ptr, ptr }
%struct.V4L2Context = type { ptr, i32, i32, i32, %struct.v4l2_format, i32, i32, %struct.AVRational, ptr, i32, i32, i32 }
%struct.v4l2_format = type { i32, %union.anon.2 }
%union.anon.2 = type { %struct.v4l2_window, [144 x i8] }
%struct.v4l2_window = type { %struct.v4l2_rect, i32, i32, ptr, i32, ptr, i8 }
%struct.v4l2_rect = type { i32, i32, i32, i32 }
%union.sem_t = type { i64, [24 x i8] }
%struct.AVPacket = type { ptr, i64, i64, ptr, i32, i32, i32, ptr, i32, i64, i64, ptr, ptr, %struct.AVRational }
%struct.v4l2_event_subscription = type { i32, i32, i32, [5 x i32] }

@.str.28 = private unnamed_addr constant [25 x i8] c"can't configure decoder\0A\00", align 1
@.str.29 = private unnamed_addr constant [112 x i8] c"the v4l2 driver does not support VIDIOC_SUBSCRIBE_EVENT\0Ayou must provide codec_height and codec_width on input\0A\00", align 1
@.str.30 = private unnamed_addr constant [71 x i8] c"the v4l2 driver does not support end of stream VIDIOC_SUBSCRIBE_EVENT\0A\00", align 1

; Function Attrs: nounwind uwtable
define internal i32 @v4l2_prepare_decoder(ptr noundef %0) #1 {
  %2 = alloca i32, align 4
  %3 = alloca ptr, align 8
  %4 = alloca %struct.v4l2_event_subscription, align 4
  %5 = alloca ptr, align 8
  %6 = alloca i32, align 4
  %7 = alloca i32, align 4
  store ptr %0, ptr %3, align 8, !tbaa !32
  call void @llvm.lifetime.start.p0(i64 32, ptr %4) #6
  call void @llvm.lifetime.start.p0(i64 8, ptr %5) #6
  %8 = load ptr, ptr %3, align 8, !tbaa !32
  %9 = getelementptr inbounds nuw %struct.V4L2m2mContext, ptr %8, i32 0, i32 3
  store ptr %9, ptr %5, align 8, !tbaa !34
  call void @llvm.lifetime.start.p0(i64 4, ptr %6) #6
  call void @llvm.memset.p0.i64(ptr align 4 %4, i8 0, i64 32, i1 false)
  %10 = getelementptr inbounds nuw %struct.v4l2_event_subscription, ptr %4, i32 0, i32 0
  store i32 5, ptr %10, align 4, !tbaa !56
  %11 = load ptr, ptr %3, align 8, !tbaa !32
  %12 = getelementptr inbounds nuw %struct.V4L2m2mContext, ptr %11, i32 0, i32 1
  %13 = load i32, ptr %12, align 8, !tbaa !58
  %14 = call i32 (i32, i64, ...) @ioctl(i32 noundef %13, i64 noundef 1075861082, ptr noundef %4) #6
  store i32 %14, ptr %6, align 4, !tbaa !31
  %15 = load i32, ptr %6, align 4, !tbaa !31
  %16 = icmp slt i32 %15, 0
  br i1 %16, label %17, label %33

17:                                               ; preds = %1
  %18 = load ptr, ptr %5, align 8, !tbaa !34
  %19 = getelementptr inbounds nuw %struct.V4L2Context, ptr %18, i32 0, i32 6
  %20 = load i32, ptr %19, align 4, !tbaa !37
  %21 = icmp eq i32 %20, 0
  br i1 %21, label %27, label %22

22:                                               ; preds = %17
  %23 = load ptr, ptr %5, align 8, !tbaa !34
  %24 = getelementptr inbounds nuw %struct.V4L2Context, ptr %23, i32 0, i32 5
  %25 = load i32, ptr %24, align 8, !tbaa !42
  %26 = icmp eq i32 %25, 0
  br i1 %26, label %27, label %32

27:                                               ; preds = %22, %17
  %28 = load ptr, ptr %3, align 8, !tbaa !32
  %29 = getelementptr inbounds nuw %struct.V4L2m2mContext, ptr %28, i32 0, i32 4
  %30 = load ptr, ptr %29, align 8, !tbaa !47
  call void (ptr, i32, ptr, ...) @av_log(ptr noundef %30, i32 noundef 16, ptr noundef @.str.29)
  %31 = load i32, ptr %6, align 4, !tbaa !31
  store i32 %31, ptr %2, align 4
  store i32 1, ptr %7, align 4
  br label %46

32:                                               ; preds = %22
  br label %33

33:                                               ; preds = %32, %1
  call void @llvm.memset.p0.i64(ptr align 4 %4, i8 0, i64 32, i1 false)
  %34 = getelementptr inbounds nuw %struct.v4l2_event_subscription, ptr %4, i32 0, i32 0
  store i32 2, ptr %34, align 4, !tbaa !56
  %35 = load ptr, ptr %3, align 8, !tbaa !32
  %36 = getelementptr inbounds nuw %struct.V4L2m2mContext, ptr %35, i32 0, i32 1
  %37 = load i32, ptr %36, align 8, !tbaa !58
  %38 = call i32 (i32, i64, ...) @ioctl(i32 noundef %37, i64 noundef 1075861082, ptr noundef %4) #6
  store i32 %38, ptr %6, align 4, !tbaa !31
  %39 = load i32, ptr %6, align 4, !tbaa !31
  %40 = icmp slt i32 %39, 0
  br i1 %40, label %41, label %45

41:                                               ; preds = %33
  %42 = load ptr, ptr %3, align 8, !tbaa !32
  %43 = getelementptr inbounds nuw %struct.V4L2m2mContext, ptr %42, i32 0, i32 4
  %44 = load ptr, ptr %43, align 8, !tbaa !47
  call void (ptr, i32, ptr, ...) @av_log(ptr noundef %44, i32 noundef 24, ptr noundef @.str.30)
  br label %45

45:                                               ; preds = %41, %33
  store i32 0, ptr %2, align 4
  store i32 1, ptr %7, align 4
  br label %46

46:                                               ; preds = %45, %27
  call void @llvm.lifetime.end.p0(i64 4, ptr %6) #6
  call void @llvm.lifetime.end.p0(i64 8, ptr %5) #6
  call void @llvm.lifetime.end.p0(i64 32, ptr %4) #6
  %47 = load i32, ptr %2, align 4
  ret i32 %47
}

; Function Attrs: cold nounwind optsize uwtable
define internal i32 @v4l2_decode_init(ptr noundef %0) #0 {
  %2 = alloca i32, align 4
  %3 = alloca ptr, align 8
  %4 = alloca ptr, align 8
  %5 = alloca ptr, align 8
  %6 = alloca ptr, align 8
  %7 = alloca ptr, align 8
  %8 = alloca i32, align 4
  %9 = alloca i32, align 4
  store ptr %0, ptr %3, align 8, !tbaa !4
  call void @llvm.lifetime.start.p0(i64 8, ptr %4) #6
  call void @llvm.lifetime.start.p0(i64 8, ptr %5) #6
  call void @llvm.lifetime.start.p0(i64 8, ptr %6) #6
  call void @llvm.lifetime.start.p0(i64 8, ptr %7) #6
  %10 = load ptr, ptr %3, align 8, !tbaa !4
  %11 = getelementptr inbounds nuw %struct.AVCodecContext, ptr %10, i32 0, i32 6
  %12 = load ptr, ptr %11, align 8, !tbaa !9
  store ptr %12, ptr %7, align 8, !tbaa !29
  call void @llvm.lifetime.start.p0(i64 4, ptr %8) #6
  %13 = load ptr, ptr %7, align 8, !tbaa !29
  %14 = call i32 @ff_v4l2_m2m_create_context(ptr noundef %13, ptr noundef %6)
  store i32 %14, ptr %8, align 4, !tbaa !31
  %15 = load i32, ptr %8, align 4, !tbaa !31
  %16 = icmp slt i32 %15, 0
  br i1 %16, label %17, label %19

17:                                               ; preds = %1
  %18 = load i32, ptr %8, align 4, !tbaa !31
  store i32 %18, ptr %2, align 4
  store i32 1, ptr %9, align 4
  br label %65

19:                                               ; preds = %1
  %20 = load ptr, ptr %6, align 8, !tbaa !32
  %21 = getelementptr inbounds nuw %struct.V4L2m2mContext, ptr %20, i32 0, i32 2
  store ptr %21, ptr %4, align 8, !tbaa !34
  %22 = load ptr, ptr %6, align 8, !tbaa !32
  %23 = getelementptr inbounds nuw %struct.V4L2m2mContext, ptr %22, i32 0, i32 3
  store ptr %23, ptr %5, align 8, !tbaa !34
  %24 = load ptr, ptr %3, align 8, !tbaa !4
  %25 = getelementptr inbounds nuw %struct.AVCodecContext, ptr %24, i32 0, i32 21
  %26 = load i32, ptr %25, align 4, !tbaa !36
  %27 = load ptr, ptr %4, align 8, !tbaa !34
  %28 = getelementptr inbounds nuw %struct.V4L2Context, ptr %27, i32 0, i32 6
  store i32 %26, ptr %28, align 4, !tbaa !37
  %29 = load ptr, ptr %5, align 8, !tbaa !34
  %30 = getelementptr inbounds nuw %struct.V4L2Context, ptr %29, i32 0, i32 6
  store i32 %26, ptr %30, align 4, !tbaa !37
  %31 = load ptr, ptr %3, align 8, !tbaa !4
  %32 = getelementptr inbounds nuw %struct.AVCodecContext, ptr %31, i32 0, i32 20
  %33 = load i32, ptr %32, align 8, !tbaa !41
  %34 = load ptr, ptr %4, align 8, !tbaa !34
  %35 = getelementptr inbounds nuw %struct.V4L2Context, ptr %34, i32 0, i32 5
  store i32 %33, ptr %35, align 8, !tbaa !42
  %36 = load ptr, ptr %5, align 8, !tbaa !34
  %37 = getelementptr inbounds nuw %struct.V4L2Context, ptr %36, i32 0, i32 5
  store i32 %33, ptr %37, align 8, !tbaa !42
  %38 = load ptr, ptr %3, align 8, !tbaa !4
  %39 = getelementptr inbounds nuw %struct.AVCodecContext, ptr %38, i32 0, i32 4
  %40 = load i32, ptr %39, align 8, !tbaa !43
  %41 = load ptr, ptr %5, align 8, !tbaa !34
  %42 = getelementptr inbounds nuw %struct.V4L2Context, ptr %41, i32 0, i32 3
  store i32 %40, ptr %42, align 8, !tbaa !44
  %43 = load ptr, ptr %5, align 8, !tbaa !34
  %44 = getelementptr inbounds nuw %struct.V4L2Context, ptr %43, i32 0, i32 2
  store i32 -1, ptr %44, align 4, !tbaa !45
  %45 = load ptr, ptr %4, align 8, !tbaa !34
  %46 = getelementptr inbounds nuw %struct.V4L2Context, ptr %45, i32 0, i32 3
  store i32 13, ptr %46, align 8, !tbaa !44
  %47 = load ptr, ptr %3, align 8, !tbaa !4
  %48 = getelementptr inbounds nuw %struct.AVCodecContext, ptr %47, i32 0, i32 23
  %49 = load i32, ptr %48, align 8, !tbaa !46
  %50 = load ptr, ptr %4, align 8, !tbaa !34
  %51 = getelementptr inbounds nuw %struct.V4L2Context, ptr %50, i32 0, i32 2
  store i32 %49, ptr %51, align 4, !tbaa !45
  %52 = load ptr, ptr %3, align 8, !tbaa !4
  %53 = load ptr, ptr %6, align 8, !tbaa !32
  %54 = getelementptr inbounds nuw %struct.V4L2m2mContext, ptr %53, i32 0, i32 4
  store ptr %52, ptr %54, align 8, !tbaa !47
  %55 = load ptr, ptr %7, align 8, !tbaa !29
  %56 = call i32 @ff_v4l2_m2m_codec_init(ptr noundef %55)
  store i32 %56, ptr %8, align 4, !tbaa !31
  %57 = load i32, ptr %8, align 4, !tbaa !31
  %58 = icmp ne i32 %57, 0
  br i1 %58, label %59, label %62

59:                                               ; preds = %19
  %60 = load ptr, ptr %3, align 8, !tbaa !4
  call void (ptr, i32, ptr, ...) @av_log(ptr noundef %60, i32 noundef 16, ptr noundef @.str.28)
  %61 = load i32, ptr %8, align 4, !tbaa !31
  store i32 %61, ptr %2, align 4
  store i32 1, ptr %9, align 4
  br label %65

62:                                               ; preds = %19
  %63 = load ptr, ptr %6, align 8, !tbaa !32
  %64 = call i32 @v4l2_prepare_decoder(ptr noundef %63)
  store i32 %64, ptr %2, align 4
  store i32 1, ptr %9, align 4
  br label %65

65:                                               ; preds = %62, %59, %17
  call void @llvm.lifetime.end.p0(i64 4, ptr %8) #6
  call void @llvm.lifetime.end.p0(i64 8, ptr %7) #6
  call void @llvm.lifetime.end.p0(i64 8, ptr %6) #6
  call void @llvm.lifetime.end.p0(i64 8, ptr %5) #6
  call void @llvm.lifetime.end.p0(i64 8, ptr %4) #6
  %66 = load i32, ptr %2, align 4
  ret i32 %66
}