; Function Attrs: cold nounwind optsize uwtable
define internal i32 @v4l2_decode_init(ptr noundef %0) #0 {
  %2 = alloca %struct.v4l2_event_subscription, align 4
  %3 = alloca ptr, align 8
  call void @llvm.lifetime.start.p0(i64 8, ptr nonnull %3) #6
  %4 = getelementptr inbounds nuw i8, ptr %0, i64 32
  %5 = load ptr, ptr %4, align 8, !tbaa !4
  %6 = call i32 @ff_v4l2_m2m_create_context(ptr noundef %5, ptr noundef nonnull %3) #6
  %7 = icmp slt i32 %6, 0
  br i1 %7, label %54, label %8

8:                                                ; preds = %1
  %9 = load ptr, ptr %3, align 8, !tbaa !27
  %10 = getelementptr inbounds nuw i8, ptr %0, i64 124
  %11 = load i32, ptr %10, align 4, !tbaa !29
  %12 = getelementptr inbounds nuw i8, ptr %9, i64 4340
  store i32 %11, ptr %12, align 4, !tbaa !30
  %13 = getelementptr inbounds nuw i8, ptr %9, i64 4612
  store i32 %11, ptr %13, align 4, !tbaa !30
  %14 = getelementptr inbounds nuw i8, ptr %0, i64 120
  %15 = load i32, ptr %14, align 8, !tbaa !34
  %16 = getelementptr inbounds nuw i8, ptr %9, i64 4336
  store i32 %15, ptr %16, align 8, !tbaa !35
  %17 = getelementptr inbounds nuw i8, ptr %9, i64 4608
  store i32 %15, ptr %17, align 8, !tbaa !35
  %18 = getelementptr inbounds nuw i8, ptr %0, i64 24
  %19 = load i32, ptr %18, align 8, !tbaa !36
  %20 = getelementptr inbounds nuw i8, ptr %9, i64 4392
  store i32 %19, ptr %20, align 8, !tbaa !37
  %21 = getelementptr inbounds nuw i8, ptr %9, i64 4388
  store i32 -1, ptr %21, align 4, !tbaa !38
  %22 = getelementptr inbounds nuw i8, ptr %9, i64 4120
  store i32 13, ptr %22, align 8, !tbaa !37
  %23 = getelementptr inbounds nuw i8, ptr %0, i64 136
  %24 = load i32, ptr %23, align 8, !tbaa !39
  %25 = getelementptr inbounds nuw i8, ptr %9, i64 4116
  store i32 %24, ptr %25, align 4, !tbaa !38
  %26 = getelementptr inbounds nuw i8, ptr %9, i64 4648
  store ptr %0, ptr %26, align 8, !tbaa !40
  %27 = call i32 @ff_v4l2_m2m_codec_init(ptr noundef %5) #6
  %.not = icmp eq i32 %27, 0
  br i1 %.not, label %29, label %28

28:                                               ; preds = %8
  call void (ptr, i32, ptr, ...) @av_log(ptr noundef nonnull %0, i32 noundef 16, ptr noundef nonnull @.str.28) #6
  br label %54

29:                                               ; preds = %8
  %30 = load ptr, ptr %3, align 8, !tbaa !27
  call void @llvm.lifetime.start.p0(i64 32, ptr nonnull %2) #6
  %31 = getelementptr inbounds nuw i8, ptr %2, i64 4
  call void @llvm.memset.p0.i64(ptr noundef nonnull align 4 dereferenceable(28) %31, i8 0, i64 28, i1 false)
  store i32 5, ptr %2, align 4, !tbaa !45
  %32 = getelementptr inbounds nuw i8, ptr %30, i64 4096
  %33 = load i32, ptr %32, align 8, !tbaa !47
  %34 = call i32 (i32, i64, ...) @ioctl(i32 noundef %33, i64 noundef 1075861082, ptr noundef nonnull %2) #6
  %35 = icmp slt i32 %34, 0
  br i1 %35, label %36, label %47

36:                                               ; preds = %29
  %37 = getelementptr inbounds nuw i8, ptr %30, i64 4612
  %38 = load i32, ptr %37, align 4, !tbaa !30
  %39 = icmp eq i32 %38, 0
  br i1 %39, label %44, label %40

40:                                               ; preds = %36
  %41 = getelementptr inbounds nuw i8, ptr %30, i64 4608
  %42 = load i32, ptr %41, align 8, !tbaa !35
  %43 = icmp eq i32 %42, 0
  br i1 %43, label %44, label %47

44:                                               ; preds = %40, %36
  %45 = getelementptr inbounds nuw i8, ptr %30, i64 4648
  %46 = load ptr, ptr %45, align 8, !tbaa !40
  call void (ptr, i32, ptr, ...) @av_log(ptr noundef %46, i32 noundef 16, ptr noundef nonnull @.str.29) #6
  br label %v4l2_prepare_decoder.exit

47:                                               ; preds = %40, %29
  call void @llvm.memset.p0.i64(ptr noundef nonnull align 4 dereferenceable(28) %31, i8 0, i64 28, i1 false)
  store i32 2, ptr %2, align 4, !tbaa !45
  %48 = load i32, ptr %32, align 8, !tbaa !47
  %49 = call i32 (i32, i64, ...) @ioctl(i32 noundef %48, i64 noundef 1075861082, ptr noundef nonnull %2) #6
  %50 = icmp slt i32 %49, 0
  br i1 %50, label %51, label %v4l2_prepare_decoder.exit

51:                                               ; preds = %47
  %52 = getelementptr inbounds nuw i8, ptr %30, i64 4648
  %53 = load ptr, ptr %52, align 8, !tbaa !40
  call void (ptr, i32, ptr, ...) @av_log(ptr noundef %53, i32 noundef 24, ptr noundef nonnull @.str.30) #6
  br label %v4l2_prepare_decoder.exit

v4l2_prepare_decoder.exit:                        ; preds = %44, %47, %51
  %.0.i = phi i32 [ %34, %44 ], [ 0, %51 ], [ 0, %47 ]
  call void @llvm.lifetime.end.p0(i64 32, ptr nonnull %2) #6
  br label %54

54:                                               ; preds = %1, %v4l2_prepare_decoder.exit, %28
  %.0 = phi i32 [ %27, %28 ], [ %.0.i, %v4l2_prepare_decoder.exit ], [ %6, %1 ]
  call void @llvm.lifetime.end.p0(i64 8, ptr nonnull %3) #6
  ret i32 %.0
}